target datalayout = "e-m:e-p270:32:32-p271:32:32-p272:64:64-i64:64-i128:128-f80:128-n8:16:32:64-S128"
target triple = "x86_64-pc-linux-gnu"

%struct.GlobalOptions = type { i32, i32 }
%"class.std::__cxx11::basic_string" = type { %"struct.std::__cxx11::basic_string<char>::_Alloc_hider", i64, %union.anon }
%"struct.std::__cxx11::basic_string<char>::_Alloc_hider" = type { ptr }
%union.anon = type { i64, [8 x i8] }
%"class.std::allocator" = type { i8 }
%"struct.Luau::CompileOptions" = type { i32, i32, i32, i32, ptr, ptr, ptr, ptr, ptr }
%"struct.Luau::ParseOptions" = type { i8, i8 }

@globalOptions = dso_local global %struct.GlobalOptions { i32 1, i32 1 }, align 4

; Function Attrs: mustprogress uwtable
define internal void @_ZL5coptsv(ptr dead_on_unwind noalias writable sret(%"struct.Luau::CompileOptions") align 8 %0) #1 {
  %2 = getelementptr inbounds %"struct.Luau::CompileOptions", ptr %0, i32 0, i32 0
  store i32 1, ptr %2, align 8
  %3 = getelementptr inbounds %"struct.Luau::CompileOptions", ptr %0, i32 0, i32 1
  store i32 1, ptr %3, align 4
  %4 = getelementptr inbounds %"struct.Luau::CompileOptions", ptr %0, i32 0, i32 2
  store i32 0, ptr %4, align 8
  %5 = getelementptr inbounds %"struct.Luau::CompileOptions", ptr %0, i32 0, i32 3
  store i32 0, ptr %5, align 4
  %6 = getelementptr inbounds %"struct.Luau::CompileOptions", ptr %0, i32 0, i32 4
  store ptr null, ptr %6, align 8
  %7 = getelementptr inbounds %"struct.Luau::CompileOptions", ptr %0, i32 0, i32 5
  store ptr null, ptr %7, align 8
  %8 = getelementptr inbounds %"struct.Luau::CompileOptions", ptr %0, i32 0, i32 6
  store ptr null, ptr %8, align 8
  %9 = getelementptr inbounds %"struct.Luau::CompileOptions", ptr %0, i32 0, i32 7
  store ptr null, ptr %9, align 8
  %10 = getelementptr inbounds %"struct.Luau::CompileOptions", ptr %0, i32 0, i32 8
  store ptr null, ptr %10, align 8
  %11 = load i32, ptr @globalOptions, align 4
  %12 = getelementptr inbounds %"struct.Luau::CompileOptions", ptr %0, i32 0, i32 0
  store i32 %11, ptr %12, align 8
  %13 = load i32, ptr getelementptr inbounds (%struct.GlobalOptions, ptr @globalOptions, i32 0, i32 1), align 4
  %14 = getelementptr inbounds %"struct.Luau::CompileOptions", ptr %0, i32 0, i32 1
  store i32 %13, ptr %14, align 4
  %15 = getelementptr inbounds %"struct.Luau::CompileOptions", ptr %0, i32 0, i32 2
  store i32 1, ptr %15, align 8
  %16 = call noundef zeroext i1 @_Z14coverageActivev()
  %17 = select i1 %16, i32 2, i32 0
  %18 = getelementptr inbounds %"struct.Luau::CompileOptions", ptr %0, i32 0, i32 3
  store i32 %17, ptr %18, align 4
  ret void
}

; Function Attrs: mustprogress uwtable
define internal noundef i32 @_ZL14lua_loadstringP9lua_State(ptr noundef %0) #1 personality ptr @__gxx_personality_v0 {
  %2 = alloca i32, align 4
  %3 = alloca ptr, align 8
  %4 = alloca i64, align 8
  %5 = alloca ptr, align 8
  %6 = alloca ptr, align 8
  %7 = alloca %"class.std::__cxx11::basic_string", align 8
  %8 = alloca %"class.std::__cxx11::basic_string", align 8
  %9 = alloca %"class.std::allocator", align 1
  %10 = alloca ptr, align 8
  %11 = alloca i32, align 4
  %12 = alloca %"struct.Luau::CompileOptions", align 8
  %13 = alloca %"struct.Luau::ParseOptions", align 1
  %14 = alloca i32, align 4
  store ptr %0, ptr %3, align 8
  store i64 0, ptr %4, align 8
  %15 = load ptr, ptr %3, align 8
  %16 = call noundef ptr @_Z17luaL_checklstringP9lua_StateiPm(ptr noundef %15, i32 noundef 1, ptr noundef %4)
  store ptr %16, ptr %5, align 8
  %17 = load ptr, ptr %3, align 8
  %18 = load ptr, ptr %5, align 8
  %19 = call noundef ptr @_Z15luaL_optlstringP9lua_StateiPKcPm(ptr noundef %17, i32 noundef 2, ptr noundef %18, ptr noundef null)
  store ptr %19, ptr %6, align 8
  %20 = load ptr, ptr %3, align 8
  call void @_Z14lua_setsafeenvP9lua_Stateii(ptr noundef %20, i32 noundef -10001, i32 noundef 0)
  %21 = load ptr, ptr %5, align 8
  %22 = load i64, ptr %4, align 8
  call void @_ZNSaIcEC1Ev(ptr noundef nonnull align 1 dereferenceable(1) %9) #11
  invoke void @_ZNSt7__cxx1112basic_stringIcSt11char_traitsIcESaIcEEC1EPKcmRKS3_(ptr noundef nonnull align 8 dereferenceable(32) %8, ptr noundef %21, i64 noundef %22, ptr noundef nonnull align 1 dereferenceable(1) %9)
          to label %23 unwind label %36

23:                                               ; preds = %1
  invoke void @_ZL5coptsv(ptr dead_on_unwind writable sret(%"struct.Luau::CompileOptions") align 8 %12)
          to label %24 unwind label %40

24:                                               ; preds = %23
  %25 = getelementptr inbounds %"struct.Luau::ParseOptions", ptr %13, i32 0, i32 0
  store i8 0, ptr %25, align 1
  %26 = getelementptr inbounds %"struct.Luau::ParseOptions", ptr %13, i32 0, i32 1
  store i8 0, ptr %26, align 1
  invoke void @_ZN4Luau7compileERKNSt7__cxx1112basic_stringIcSt11char_traitsIcESaIcEEERKNS_14CompileOptionsERKNS_12ParseOptionsEPNS_15BytecodeEncoderE(ptr dead_on_unwind writable sret(%"class.std::__cxx11::basic_string") align 8 %7, ptr noundef nonnull align 8 dereferenceable(32) %8, ptr noundef nonnull align 8 dereferenceable(56) %12, ptr noundef nonnull align 1 dereferenceable(2) %13, ptr noundef null)
          to label %27 unwind label %40

27:                                               ; preds = %24
  call void @_ZNSt7__cxx1112basic_stringIcSt11char_traitsIcESaIcEED1Ev(ptr noundef nonnull align 8 dereferenceable(32) %8) #11
  call void @_ZNSaIcED1Ev(ptr noundef nonnull align 1 dereferenceable(1) %9) #11
  %28 = load ptr, ptr %3, align 8
  %29 = load ptr, ptr %6, align 8
  %30 = call noundef ptr @_ZNSt7__cxx1112basic_stringIcSt11char_traitsIcESaIcEE4dataEv(ptr noundef nonnull align 8 dereferenceable(32) %7) #11
  %31 = call noundef i64 @_ZNKSt7__cxx1112basic_stringIcSt11char_traitsIcESaIcEE4sizeEv(ptr noundef nonnull align 8 dereferenceable(32) %7) #11
  %32 = invoke noundef i32 @_Z9luau_loadP9lua_StatePKcS2_mi(ptr noundef %28, ptr noundef %29, ptr noundef %30, i64 noundef %31, i32 noundef 0)
          to label %33 unwind label %45

33:                                               ; preds = %27
  %34 = icmp eq i32 %32, 0
  br i1 %34, label %35, label %49

35:                                               ; preds = %33
  store i32 1, ptr %2, align 4
  store i32 1, ptr %14, align 4
  br label %54

36:                                               ; preds = %1
  %37 = landingpad { ptr, i32 }
          cleanup
  %38 = extractvalue { ptr, i32 } %37, 0
  store ptr %38, ptr %10, align 8
  %39 = extractvalue { ptr, i32 } %37, 1
  store i32 %39, ptr %11, align 4
  br label %44

40:                                               ; preds = %24, %23
  %41 = landingpad { ptr, i32 }
          cleanup
  %42 = extractvalue { ptr, i32 } %41, 0
  store ptr %42, ptr %10, align 8
  %43 = extractvalue { ptr, i32 } %41, 1
  store i32 %43, ptr %11, align 4
  call void @_ZNSt7__cxx1112basic_stringIcSt11char_traitsIcESaIcEED1Ev(ptr noundef nonnull align 8 dereferenceable(32) %8) #11
  br label %44

44:                                               ; preds = %40, %36
  call void @_ZNSaIcED1Ev(ptr noundef nonnull align 1 dereferenceable(1) %9) #11
  br label %56

45:                                               ; preds = %51, %49, %27
  %46 = landingpad { ptr, i32 }
          cleanup
  %47 = extractvalue { ptr, i32 } %46, 0
  store ptr %47, ptr %10, align 8
  %48 = extractvalue { ptr, i32 } %46, 1
  store i32 %48, ptr %11, align 4
  call void @_ZNSt7__cxx1112basic_stringIcSt11char_traitsIcESaIcEED1Ev(ptr noundef nonnull align 8 dereferenceable(32) %7) #11
  br label %56

49:                                               ; preds = %33
  %50 = load ptr, ptr %3, align 8
  invoke void @_Z11lua_pushnilP9lua_State(ptr noundef %50)
          to label %51 unwind label %45

51:                                               ; preds = %49
  %52 = load ptr, ptr %3, align 8
  invoke void @_Z10lua_insertP9lua_Statei(ptr noundef %52, i32 noundef -2)
          to label %53 unwind label %45

53:                                               ; preds = %51
  store i32 2, ptr %2, align 4
  store i32 1, ptr %14, align 4
  br label %54

54:                                               ; preds = %53, %35
  call void @_ZNSt7__cxx1112basic_stringIcSt11char_traitsIcESaIcEED1Ev(ptr noundef nonnull align 8 dereferenceable(32) %7) #11
  %55 = load i32, ptr %2, align 4
  ret i32 %55

56:                                               ; preds = %45, %44
  %57 = load ptr, ptr %10, align 8
  %58 = load i32, ptr %11, align 4
  %59 = insertvalue { ptr, i32 } poison, ptr %57, 0
  %60 = insertvalue { ptr, i32 } %59, i32 %58, 1
  resume { ptr, i32 } %60
}