; Function Attrs: mustprogress uwtable
define internal noundef range(i32 1, 3) i32 @_ZL14lua_loadstringP9lua_State(ptr noundef %0) #1 personality ptr @__gxx_personality_v0 {
  %2 = alloca i64, align 8
  %3 = alloca %"class.std::__cxx11::basic_string", align 8
  %4 = alloca %"class.std::__cxx11::basic_string", align 8
  %5 = alloca %"class.std::allocator", align 1
  %6 = alloca %"struct.Luau::CompileOptions", align 8
  %7 = alloca %"struct.Luau::ParseOptions", align 1
  store i64 0, ptr %2, align 8
  %8 = call noundef ptr @_Z17luaL_checklstringP9lua_StateiPm(ptr noundef %0, i32 noundef 1, ptr noundef nonnull %2)
  %9 = call noundef ptr @_Z15luaL_optlstringP9lua_StateiPKcPm(ptr noundef %0, i32 noundef 2, ptr noundef %8, ptr noundef null)
  call void @_Z14lua_setsafeenvP9lua_Stateii(ptr noundef %0, i32 noundef -10001, i32 noundef 0)
  %10 = load i64, ptr %2, align 8
  call void @_ZNSaIcEC1Ev(ptr noundef nonnull align 1 dereferenceable(1) %5) #22
  invoke void @_ZNSt7__cxx1112basic_stringIcSt11char_traitsIcESaIcEEC1EPKcmRKS3_(ptr noundef nonnull align 8 dereferenceable(32) %4, ptr noundef %8, i64 noundef %10, ptr noundef nonnull align 1 dereferenceable(1) %5)
          to label %11 unwind label %26

11:                                               ; preds = %1
  call void @llvm.experimental.noalias.scope.decl(metadata !5)
  %12 = getelementptr inbounds i8, ptr %6, i64 8
  %13 = getelementptr inbounds i8, ptr %6, i64 16
  call void @llvm.memset.p0.i64(ptr noundef nonnull align 8 dereferenceable(40) %13, i8 0, i64 40, i1 false), !alias.scope !5
  %14 = load <2 x i32>, ptr @globalOptions, align 8, !noalias !5
  store <2 x i32> %14, ptr %6, align 8, !alias.scope !5
  store i32 1, ptr %12, align 8, !alias.scope !5
  %15 = invoke noundef zeroext i1 @_Z14coverageActivev()
          to label %16 unwind label %28

16:                                               ; preds = %11
  %17 = getelementptr inbounds i8, ptr %6, i64 12
  %18 = select i1 %15, i32 2, i32 0
  store i32 %18, ptr %17, align 4, !alias.scope !5
  store i8 0, ptr %7, align 1
  %19 = getelementptr inbounds i8, ptr %7, i64 1
  store i8 0, ptr %19, align 1
  invoke void @_ZN4Luau7compileERKNSt7__cxx1112basic_stringIcSt11char_traitsIcESaIcEEERKNS_14CompileOptionsERKNS_12ParseOptionsEPNS_15BytecodeEncoderE(ptr dead_on_unwind nonnull writable sret(%"class.std::__cxx11::basic_string") align 8 %3, ptr noundef nonnull align 8 dereferenceable(32) %4, ptr noundef nonnull align 8 dereferenceable(56) %6, ptr noundef nonnull align 1 dereferenceable(2) %7, ptr noundef null)
          to label %20 unwind label %28

20:                                               ; preds = %16
  call void @_ZNSt7__cxx1112basic_stringIcSt11char_traitsIcESaIcEED1Ev(ptr noundef nonnull align 8 dereferenceable(32) %4) #22
  call void @_ZNSaIcED1Ev(ptr noundef nonnull align 1 dereferenceable(1) %5) #22
  %21 = call noundef ptr @_ZNSt7__cxx1112basic_stringIcSt11char_traitsIcESaIcEE4dataEv(ptr noundef nonnull align 8 dereferenceable(32) %3) #22
  %22 = call noundef i64 @_ZNKSt7__cxx1112basic_stringIcSt11char_traitsIcESaIcEE4sizeEv(ptr noundef nonnull align 8 dereferenceable(32) %3) #22
  %23 = invoke noundef i32 @_Z9luau_loadP9lua_StatePKcS2_mi(ptr noundef %0, ptr noundef %9, ptr noundef %21, i64 noundef %22, i32 noundef 0)
          to label %24 unwind label %31

24:                                               ; preds = %20
  %25 = icmp eq i32 %23, 0
  br i1 %25, label %35, label %33

26:                                               ; preds = %1
  %27 = landingpad { ptr, i32 }
          cleanup
  br label %30

28:                                               ; preds = %11, %16
  %29 = landingpad { ptr, i32 }
          cleanup
  call void @_ZNSt7__cxx1112basic_stringIcSt11char_traitsIcESaIcEED1Ev(ptr noundef nonnull align 8 dereferenceable(32) %4) #22
  br label %30

30:                                               ; preds = %28, %26
  %.pn = phi { ptr, i32 } [ %29, %28 ], [ %27, %26 ]
  call void @_ZNSaIcED1Ev(ptr noundef nonnull align 1 dereferenceable(1) %5) #22
  br label %36

31:                                               ; preds = %34, %33, %20
  %32 = landingpad { ptr, i32 }
          cleanup
  call void @_ZNSt7__cxx1112basic_stringIcSt11char_traitsIcESaIcEED1Ev(ptr noundef nonnull align 8 dereferenceable(32) %3) #22
  br label %36

33:                                               ; preds = %24
  invoke void @_Z11lua_pushnilP9lua_State(ptr noundef %0)
          to label %34 unwind label %31

34:                                               ; preds = %33
  invoke void @_Z10lua_insertP9lua_Statei(ptr noundef %0, i32 noundef -2)
          to label %35 unwind label %31

35:                                               ; preds = %34, %24
  %.013 = phi i32 [ 1, %24 ], [ 2, %34 ]
  call void @_ZNSt7__cxx1112basic_stringIcSt11char_traitsIcESaIcEED1Ev(ptr noundef nonnull align 8 dereferenceable(32) %3) #22
  ret i32 %.013

36:                                               ; preds = %31, %30
  %.pn15 = phi { ptr, i32 } [ %32, %31 ], [ %.pn, %30 ]
  resume { ptr, i32 } %.pn15
}